; Function Attrs: mustprogress uwtable
define dso_local void @_ZN10cmCTestGITC2EP7cmCTestRSo(ptr noundef nonnull align 8 dereferenceable(788) %0, ptr noundef %1, ptr noundef nonnull align 8 dereferenceable(8) %2) unnamed_addr #3 align 2 personality ptr @__gxx_personality_v0 {
  tail call void @_ZN15cmCTestGlobalVCC2EP7cmCTestRSo(ptr noundef nonnull align 8 dereferenceable(784) %0, ptr noundef %1, ptr noundef nonnull align 8 dereferenceable(8) %2)
  store ptr getelementptr inbounds ({ [16 x ptr] }, ptr @_ZTV10cmCTestGIT, i64 0, i32 0, i64 2), ptr %0, align 8
  %4 = getelementptr inbounds i8, ptr %0, i64 120
  %5 = getelementptr inbounds i8, ptr %0, i64 504
  %6 = invoke noundef nonnull align 8 dereferenceable(32) ptr @_ZNSt7__cxx1112basic_stringIcSt11char_traitsIcESaIcEEaSERKS4_(ptr noundef nonnull align 8 dereferenceable(32) %5, ptr noundef nonnull align 8 dereferenceable(32) %4)
          to label %.noexc unwind label %29

.noexc:                                           ; preds = %3
  %7 = getelementptr inbounds i8, ptr %0, i64 536
  %8 = getelementptr inbounds i8, ptr %0, i64 152
  %9 = invoke noundef nonnull align 8 dereferenceable(32) ptr @_ZNSt7__cxx1112basic_stringIcSt11char_traitsIcESaIcEEaSERKS4_(ptr noundef nonnull align 8 dereferenceable(32) %7, ptr noundef nonnull align 8 dereferenceable(32) %8)
          to label %.noexc4 unwind label %29

.noexc4:                                          ; preds = %.noexc
  %10 = getelementptr inbounds i8, ptr %0, i64 568
  %11 = getelementptr inbounds i8, ptr %0, i64 184
  %12 = invoke noundef nonnull align 8 dereferenceable(32) ptr @_ZNSt7__cxx1112basic_stringIcSt11char_traitsIcESaIcEEaSERKS4_(ptr noundef nonnull align 8 dereferenceable(32) %10, ptr noundef nonnull align 8 dereferenceable(32) %11)
          to label %.noexc5 unwind label %29

.noexc5:                                          ; preds = %.noexc4
  %13 = getelementptr inbounds i8, ptr %0, i64 600
  %14 = getelementptr inbounds i8, ptr %0, i64 216
  %15 = invoke noundef nonnull align 8 dereferenceable(32) ptr @_ZNSt7__cxx1112basic_stringIcSt11char_traitsIcESaIcEEaSERKS4_(ptr noundef nonnull align 8 dereferenceable(32) %13, ptr noundef nonnull align 8 dereferenceable(32) %14)
          to label %.noexc6 unwind label %29

.noexc6:                                          ; preds = %.noexc5
  %16 = getelementptr inbounds i8, ptr %0, i64 632
  %17 = getelementptr inbounds i8, ptr %0, i64 248
  %18 = invoke noundef nonnull align 8 dereferenceable(32) ptr @_ZNSt7__cxx1112basic_stringIcSt11char_traitsIcESaIcEEaSERKS4_(ptr noundef nonnull align 8 dereferenceable(32) %16, ptr noundef nonnull align 8 dereferenceable(32) %17)
          to label %.noexc7 unwind label %29

.noexc7:                                          ; preds = %.noexc6
  %19 = getelementptr inbounds i8, ptr %0, i64 664
  %20 = getelementptr inbounds i8, ptr %0, i64 280
  %21 = invoke noundef nonnull align 8 dereferenceable(32) ptr @_ZNSt7__cxx1112basic_stringIcSt11char_traitsIcESaIcEEaSERKS4_(ptr noundef nonnull align 8 dereferenceable(32) %19, ptr noundef nonnull align 8 dereferenceable(32) %20)
          to label %.noexc8 unwind label %29

.noexc8:                                          ; preds = %.noexc7
  %22 = getelementptr inbounds i8, ptr %0, i64 696
  %23 = getelementptr inbounds i8, ptr %0, i64 312
  %24 = invoke noundef nonnull align 8 dereferenceable(32) ptr @_ZNSt7__cxx1112basic_stringIcSt11char_traitsIcESaIcEEaSERKS4_(ptr noundef nonnull align 8 dereferenceable(32) %22, ptr noundef nonnull align 8 dereferenceable(32) %23)
          to label %.noexc9 unwind label %29

.noexc9:                                          ; preds = %.noexc8
  %25 = getelementptr inbounds i8, ptr %0, i64 728
  %26 = getelementptr inbounds i8, ptr %0, i64 344
  %27 = invoke noundef nonnull align 8 dereferenceable(32) ptr @_ZNSt7__cxx1112basic_stringIcSt11char_traitsIcESaIcEEaSERKS4_(ptr noundef nonnull align 8 dereferenceable(32) %25, ptr noundef nonnull align 8 dereferenceable(32) %26)
          to label %_ZN9cmCTestVC8RevisionaSERKS0_.exit unwind label %29

_ZN9cmCTestVC8RevisionaSERKS0_.exit:              ; preds = %.noexc9
  %28 = getelementptr inbounds i8, ptr %0, i64 784
  store i32 0, ptr %28, align 8
  ret void

29:                                               ; preds = %.noexc9, %.noexc8, %.noexc7, %.noexc6, %.noexc5, %.noexc4, %.noexc, %3
  %30 = landingpad { ptr, i32 }
          cleanup
  tail call void @_ZN15cmCTestGlobalVCD2Ev(ptr noundef nonnull align 8 dereferenceable(784) %0) #19
  resume { ptr, i32 } %30
}